target datalayout = "e-m:e-p270:32:32-p271:32:32-p272:64:64-i64:64-i128:128-f80:128-n8:16:32:64-S128"
target triple = "x86_64-unknown-linux-gnu"

%"class.mbp::arith_project_plugin" = type { %"class.mbp::project_plugin", ptr }
%"class.mbp::project_plugin" = type { ptr, ptr, %class.obj_mark, %class.ptr_vector, %class.obj_mark, %class.obj_mark, %class.ref_vector, %class.ref_vector, %class.ref_vector }
%class.ptr_vector = type { %class.vector }
%class.vector = type { ptr }
%class.obj_mark = type { %struct.default_t2uint, %class.bit_vector }
%struct.default_t2uint = type { i8 }
%class.bit_vector = type { i32, i32, ptr }
%class.ref_vector = type { %class.ref_vector_core }
%class.ref_vector_core = type { %class.ref_manager_wrapper, %class.ptr_vector }
%class.ref_manager_wrapper = type { ptr }
%class.ref_vector.49 = type { %class.ref_vector_core.50 }
%class.ref_vector_core.50 = type { %class.ref_manager_wrapper.51, %class.ptr_vector.52 }
%class.ref_manager_wrapper.51 = type { ptr }
%class.ptr_vector.52 = type { %class.vector.53 }
%class.vector.53 = type { ptr }

@_ZN3mbp20arith_project_pluginC1ER11ast_manager = hidden unnamed_addr alias void (ptr, ptr), ptr @_ZN3mbp20arith_project_pluginC2ER11ast_manager
@_ZN3mbp20arith_project_pluginD1Ev = hidden unnamed_addr alias void (ptr), ptr @_ZN3mbp20arith_project_pluginD2Ev

; Function Attrs: mustprogress nounwind uwtable
define linkonce_odr hidden void @_ZN6vectorIP3appLb0EjEC2Ev(ptr noundef nonnull align 8 dereferenceable(8) %this) unnamed_addr #5 comdat align 2 {
entry:
  %this.addr = alloca ptr, align 8
  store ptr %this, ptr %this.addr, align 8
  %this1 = load ptr, ptr %this.addr, align 8
  %m_data = getelementptr inbounds %class.vector.53, ptr %this1, i32 0, i32 0
  store ptr null, ptr %m_data, align 8
  ret void
}

; Function Attrs: mustprogress nounwind uwtable
define linkonce_odr hidden void @_ZN10ptr_vectorI3appEC2Ev(ptr noundef nonnull align 8 dereferenceable(8) %this) unnamed_addr #5 comdat align 2 {
entry:
  %this.addr = alloca ptr, align 8
  store ptr %this, ptr %this.addr, align 8
  %this1 = load ptr, ptr %this.addr, align 8
  %0 = getelementptr inbounds i8, ptr %this1, i64 0
  call void @llvm.memset.p0.i64(ptr align 8 %0, i8 0, i64 8, i1 false)
  call void @_ZN6vectorIP3appLb0EjEC2Ev(ptr noundef nonnull align 8 dereferenceable(8) %this1) #3
  ret void
}

; Function Attrs: mustprogress uwtable
define linkonce_odr hidden void @_ZN15ref_vector_coreI3app19ref_manager_wrapperIS0_11ast_managerEEC2ERKS3_(ptr noundef nonnull align 8 dereferenceable(16) %this, ptr noundef nonnull align 8 dereferenceable(8) %r) unnamed_addr #4 comdat align 2 {
entry:
  %this.addr = alloca ptr, align 8
  %r.addr = alloca ptr, align 8
  store ptr %this, ptr %this.addr, align 8
  store ptr %r, ptr %r.addr, align 8
  %this1 = load ptr, ptr %this.addr, align 8
  %0 = load ptr, ptr %r.addr, align 8
  call void @llvm.memcpy.p0.p0.i64(ptr align 8 %this1, ptr align 8 %0, i64 8, i1 false)
  %m_nodes = getelementptr inbounds %class.ref_vector_core.50, ptr %this1, i32 0, i32 1
  call void @_ZN10ptr_vectorI3appEC2Ev(ptr noundef nonnull align 8 dereferenceable(8) %m_nodes)
  ret void
}

; Function Attrs: mustprogress nounwind uwtable
define linkonce_odr hidden void @_ZN19ref_manager_wrapperI3app11ast_managerEC2ERS1_(ptr noundef nonnull align 8 dereferenceable(8) %this, ptr noundef nonnull align 8 dereferenceable(976) %m) unnamed_addr #5 comdat align 2 {
entry:
  %this.addr = alloca ptr, align 8
  %m.addr = alloca ptr, align 8
  store ptr %this, ptr %this.addr, align 8
  store ptr %m, ptr %m.addr, align 8
  %this1 = load ptr, ptr %this.addr, align 8
  %m_manager = getelementptr inbounds %class.ref_manager_wrapper.51, ptr %this1, i32 0, i32 0
  %0 = load ptr, ptr %m.addr, align 8
  store ptr %0, ptr %m_manager, align 8
  ret void
}

; Function Attrs: mustprogress uwtable
define hidden noundef zeroext i1 @_ZN3mbp20arith_project_pluginclER5modelP3appR10ref_vectorIS3_11ast_managerERS5_I4exprS6_E(ptr noundef nonnull align 8 dereferenceable(152) %this, ptr noundef nonnull align 8 dereferenceable(160) %model, ptr noundef %var, ptr noundef nonnull align 8 dereferenceable(16) %vars, ptr noundef nonnull align 8 dereferenceable(16) %lits) unnamed_addr #4 align 2 {
entry:
  %this.addr = alloca ptr, align 8
  %model.addr = alloca ptr, align 8
  %var.addr = alloca ptr, align 8
  %vars.addr = alloca ptr, align 8
  %lits.addr = alloca ptr, align 8
  store ptr %this, ptr %this.addr, align 8
  store ptr %model, ptr %model.addr, align 8
  store ptr %var, ptr %var.addr, align 8
  store ptr %vars, ptr %vars.addr, align 8
  store ptr %lits, ptr %lits.addr, align 8
  %this1 = load ptr, ptr %this.addr, align 8
  %m_imp = getelementptr inbounds %"class.mbp::arith_project_plugin", ptr %this1, i32 0, i32 1
  %0 = load ptr, ptr %m_imp, align 8
  %1 = load ptr, ptr %model.addr, align 8
  %2 = load ptr, ptr %var.addr, align 8
  %3 = load ptr, ptr %vars.addr, align 8
  %4 = load ptr, ptr %lits.addr, align 8
  %call = call noundef zeroext i1 @_ZN3mbp20arith_project_plugin3impclER5modelP3appR10ref_vectorIS4_11ast_managerERS6_I4exprS7_E(ptr noundef nonnull align 8 dereferenceable(26) %0, ptr noundef nonnull align 8 dereferenceable(160) %1, ptr noundef %2, ptr noundef nonnull align 8 dereferenceable(16) %3, ptr noundef nonnull align 8 dereferenceable(16) %4)
  ret i1 %call
}

; Function Attrs: mustprogress uwtable
define linkonce_odr hidden void @_ZN10ref_vectorI3app11ast_managerEC2ERS1_(ptr noundef nonnull align 8 dereferenceable(16) %this, ptr noundef nonnull align 8 dereferenceable(976) %m) unnamed_addr #4 comdat align 2 {
entry:
  %this.addr = alloca ptr, align 8
  %m.addr = alloca ptr, align 8
  %ref.tmp = alloca %class.ref_manager_wrapper.51, align 8
  store ptr %this, ptr %this.addr, align 8
  store ptr %m, ptr %m.addr, align 8
  %this1 = load ptr, ptr %this.addr, align 8
  %0 = load ptr, ptr %m.addr, align 8
  call void @_ZN19ref_manager_wrapperI3app11ast_managerEC2ERS1_(ptr noundef nonnull align 8 dereferenceable(8) %ref.tmp, ptr noundef nonnull align 8 dereferenceable(976) %0)
  call void @_ZN15ref_vector_coreI3app19ref_manager_wrapperIS0_11ast_managerEEC2ERKS3_(ptr noundef nonnull align 8 dereferenceable(16) %this1, ptr noundef nonnull align 8 dereferenceable(8) %ref.tmp)
  ret void
}

; Function Attrs: mustprogress nounwind uwtable
define linkonce_odr hidden noundef nonnull align 8 dereferenceable(976) ptr @_ZNK10ref_vectorI4expr11ast_managerE11get_managerEv(ptr noundef nonnull align 8 dereferenceable(16) %this) #5 comdat align 2 {
entry:
  %this.addr = alloca ptr, align 8
  store ptr %this, ptr %this.addr, align 8
  %this1 = load ptr, ptr %this.addr, align 8
  %m_manager = getelementptr inbounds %class.ref_manager_wrapper, ptr %this1, i32 0, i32 0
  %0 = load ptr, ptr %m_manager, align 8
  ret ptr %0
}

; Function Attrs: mustprogress uwtable
define hidden noundef zeroext i1 @_ZN3mbp13arith_projectER5modelP3appR10ref_vectorI4expr11ast_managerE(ptr noundef nonnull align 8 dereferenceable(160) %model, ptr noundef %var, ptr noundef nonnull align 8 dereferenceable(16) %lits) #4 personality ptr @__gxx_personality_v0 {
entry:
  %model.addr = alloca ptr, align 8
  %var.addr = alloca ptr, align 8
  %lits.addr = alloca ptr, align 8
  %m = alloca ptr, align 8
  %ap = alloca %"class.mbp::arith_project_plugin", align 8
  %vars = alloca %class.ref_vector.49, align 8
  %exn.slot = alloca ptr, align 8
  %ehselector.slot = alloca i32, align 4
  store ptr %model, ptr %model.addr, align 8
  store ptr %var, ptr %var.addr, align 8
  store ptr %lits, ptr %lits.addr, align 8
  %0 = load ptr, ptr %lits.addr, align 8
  %call = call noundef nonnull align 8 dereferenceable(976) ptr @_ZNK10ref_vectorI4expr11ast_managerE11get_managerEv(ptr noundef nonnull align 8 dereferenceable(16) %0)
  store ptr %call, ptr %m, align 8
  %1 = load ptr, ptr %m, align 8
  call void @_ZN3mbp20arith_project_pluginC1ER11ast_manager(ptr noundef nonnull align 8 dereferenceable(152) %ap, ptr noundef nonnull align 8 dereferenceable(976) %1)
  %2 = load ptr, ptr %m, align 8
  invoke void @_ZN10ref_vectorI3app11ast_managerEC2ERS1_(ptr noundef nonnull align 8 dereferenceable(16) %vars, ptr noundef nonnull align 8 dereferenceable(976) %2)
          to label %invoke.cont unwind label %lpad

invoke.cont:                                      ; preds = %entry
  %3 = load ptr, ptr %model.addr, align 8
  %4 = load ptr, ptr %var.addr, align 8
  %5 = load ptr, ptr %lits.addr, align 8
  %call3 = invoke noundef zeroext i1 @_ZN3mbp20arith_project_pluginclER5modelP3appR10ref_vectorIS3_11ast_managerERS5_I4exprS6_E(ptr noundef nonnull align 8 dereferenceable(152) %ap, ptr noundef nonnull align 8 dereferenceable(160) %3, ptr noundef %4, ptr noundef nonnull align 8 dereferenceable(16) %vars, ptr noundef nonnull align 8 dereferenceable(16) %5)
          to label %invoke.cont2 unwind label %lpad1

invoke.cont2:                                     ; preds = %invoke.cont
  call void @_ZN10ref_vectorI3app11ast_managerED2Ev(ptr noundef nonnull align 8 dereferenceable(16) %vars) #3
  call void @_ZN3mbp20arith_project_pluginD1Ev(ptr noundef nonnull align 8 dereferenceable(152) %ap) #3
  ret i1 %call3

lpad:                                             ; preds = %entry
  %6 = landingpad { ptr, i32 }
          cleanup
  %7 = extractvalue { ptr, i32 } %6, 0
  store ptr %7, ptr %exn.slot, align 8
  %8 = extractvalue { ptr, i32 } %6, 1
  store i32 %8, ptr %ehselector.slot, align 4
  br label %ehcleanup

lpad1:                                            ; preds = %invoke.cont
  %9 = landingpad { ptr, i32 }
          cleanup
  %10 = extractvalue { ptr, i32 } %9, 0
  store ptr %10, ptr %exn.slot, align 8
  %11 = extractvalue { ptr, i32 } %9, 1
  store i32 %11, ptr %ehselector.slot, align 4
  call void @_ZN10ref_vectorI3app11ast_managerED2Ev(ptr noundef nonnull align 8 dereferenceable(16) %vars) #3
  br label %ehcleanup

ehcleanup:                                        ; preds = %lpad1, %lpad
  call void @_ZN3mbp20arith_project_pluginD1Ev(ptr noundef nonnull align 8 dereferenceable(152) %ap) #3
  br label %eh.resume

eh.resume:                                        ; preds = %ehcleanup
  %exn = load ptr, ptr %exn.slot, align 8
  %sel = load i32, ptr %ehselector.slot, align 4
  %lpad.val = insertvalue { ptr, i32 } poison, ptr %exn, 0
  %lpad.val4 = insertvalue { ptr, i32 } %lpad.val, i32 %sel, 1
  resume { ptr, i32 } %lpad.val4
}