; Function Attrs: mustprogress uwtable
define hidden noundef zeroext i1 @_ZN3mbp13arith_projectER5modelP3appR10ref_vectorI4expr11ast_managerE(ptr noundef nonnull align 8 dereferenceable(160) %model, ptr noundef %var, ptr noundef nonnull align 8 dereferenceable(16) %lits) local_unnamed_addr #3 personality ptr @__gxx_personality_v0 {
entry:
  %ap = alloca %"class.mbp::arith_project_plugin", align 8
  %vars = alloca %class.ref_vector.49, align 8
  %0 = load ptr, ptr %lits, align 8
  %m2.i.i = getelementptr inbounds i8, ptr %ap, i64 8
  store ptr %0, ptr %m2.i.i, align 8
  %m_marks.i.i.i = getelementptr inbounds i8, ptr %ap, i64 24
  %m_marks.i8.i.i = getelementptr inbounds i8, ptr %ap, i64 56
  call void @llvm.memset.p0.i64(ptr noundef nonnull align 8 dereferenceable(16) %m_marks.i8.i.i, i8 0, i64 16, i1 false)
  %m_marks.i9.i.i = getelementptr inbounds i8, ptr %ap, i64 80
  call void @llvm.memset.p0.i64(ptr noundef nonnull align 8 dereferenceable(16) %m_marks.i9.i.i, i8 0, i64 16, i1 false)
  %m_cache.i.i = getelementptr inbounds i8, ptr %ap, i64 96
  %1 = ptrtoint ptr %0 to i64
  call void @llvm.memset.p0.i64(ptr noundef nonnull align 8 dereferenceable(24) %m_marks.i.i.i, i8 0, i64 24, i1 false)
  store i64 %1, ptr %m_cache.i.i, align 8
  %m_nodes.i.i.i.i = getelementptr inbounds i8, ptr %ap, i64 104
  store ptr null, ptr %m_nodes.i.i.i.i, align 8
  %m_args.i.i = getelementptr inbounds i8, ptr %ap, i64 112
  store i64 %1, ptr %m_args.i.i, align 8
  %m_nodes.i.i10.i.i = getelementptr inbounds i8, ptr %ap, i64 120
  store ptr null, ptr %m_nodes.i.i10.i.i, align 8
  %m_pure_eqs.i.i = getelementptr inbounds i8, ptr %ap, i64 128
  store i64 %1, ptr %m_pure_eqs.i.i, align 8
  %m_nodes.i.i11.i.i = getelementptr inbounds i8, ptr %ap, i64 136
  store ptr null, ptr %m_nodes.i.i11.i.i, align 8
  store ptr getelementptr inbounds ({ [10 x ptr] }, ptr @_ZTVN3mbp20arith_project_pluginE, i64 0, i32 0, i64 2), ptr %ap, align 8
  %call.i = invoke noalias noundef ptr @_ZN6memory8allocateEm(i64 noundef 32)
          to label %invoke.cont.i unwind label %lpad.i

invoke.cont.i:                                    ; preds = %entry
  store ptr %0, ptr %call.i, align 8
  %a.i.i = getelementptr inbounds i8, ptr %call.i, i64 8
  invoke void @_ZN10arith_utilC1ER11ast_manager(ptr noundef nonnull align 8 dereferenceable(16) %a.i.i, ptr noundef nonnull align 8 dereferenceable(976) %0)
          to label %invoke.cont unwind label %lpad.i

common.resume:                                    ; preds = %lpad1, %lpad.i
  %common.resume.op = phi { ptr, i32 } [ %2, %lpad.i ], [ %17, %lpad1 ]
  resume { ptr, i32 } %common.resume.op

lpad.i:                                           ; preds = %invoke.cont.i, %entry
  %2 = landingpad { ptr, i32 }
          cleanup
  call void @_ZN3mbp14project_pluginD2Ev(ptr noundef nonnull align 8 dereferenceable(144) %ap) #19
  br label %common.resume

invoke.cont:                                      ; preds = %invoke.cont.i
  %m_check_purified.i.i = getelementptr inbounds i8, ptr %call.i, i64 24
  store i8 1, ptr %m_check_purified.i.i, align 8
  %m_apply_projection.i.i = getelementptr inbounds i8, ptr %call.i, i64 25
  store i8 0, ptr %m_apply_projection.i.i, align 1
  %m_imp.i = getelementptr inbounds i8, ptr %ap, i64 144
  store ptr %call.i, ptr %m_imp.i, align 8
  store i64 %1, ptr %vars, align 8
  %m_nodes.i.i = getelementptr inbounds i8, ptr %vars, i64 8
  store ptr null, ptr %m_nodes.i.i, align 8
  %call.i56 = invoke noundef zeroext i1 @_ZN3mbp20arith_project_plugin3impclER5modelP3appR10ref_vectorIS4_11ast_managerERS6_I4exprS7_E(ptr noundef nonnull align 8 dereferenceable(26) %call.i, ptr noundef nonnull align 8 dereferenceable(160) %model, ptr noundef %var, ptr noundef nonnull align 8 dereferenceable(16) %vars, ptr noundef nonnull align 8 dereferenceable(16) %lits)
          to label %invoke.cont2 unwind label %lpad1

invoke.cont2:                                     ; preds = %invoke.cont
  %3 = load ptr, ptr %m_nodes.i.i, align 8
  %cmp.i.i.i = icmp eq ptr %3, null
  br i1 %cmp.i.i.i, label %_ZN10ref_vectorI3app11ast_managerED2Ev.exit, label %_ZNK6vectorIP3appLb0EjE4sizeEv.exit.i.i

_ZNK6vectorIP3appLb0EjE4sizeEv.exit.i.i:          ; preds = %invoke.cont2
  %arrayidx.i.i.i = getelementptr inbounds i8, ptr %3, i64 -4
  %4 = load i32, ptr %arrayidx.i.i.i, align 4
  %5 = zext i32 %4 to i64
  %add.ptr.i.i = getelementptr inbounds ptr, ptr %3, i64 %5
  %cmp3.i.not.i.i = icmp eq i32 %4, 0
  br i1 %cmp3.i.not.i.i, label %if.then.i.i.i.i.i, label %for.body.i.i.i

for.body.i.i.i:                                   ; preds = %_ZNK6vectorIP3appLb0EjE4sizeEv.exit.i.i, %_ZN15ref_vector_coreI3app19ref_manager_wrapperIS0_11ast_managerEE7dec_refEPS0_.exit.i.i.i
  %it.04.i.i.i = phi ptr [ %incdec.ptr.i.i.i, %_ZN15ref_vector_coreI3app19ref_manager_wrapperIS0_11ast_managerEE7dec_refEPS0_.exit.i.i.i ], [ %3, %_ZNK6vectorIP3appLb0EjE4sizeEv.exit.i.i ]
  %6 = load ptr, ptr %it.04.i.i.i, align 8
  %7 = load ptr, ptr %vars, align 8
  %tobool.not.i.i.i.i.i.i = icmp eq ptr %6, null
  br i1 %tobool.not.i.i.i.i.i.i, label %_ZN15ref_vector_coreI3app19ref_manager_wrapperIS0_11ast_managerEE7dec_refEPS0_.exit.i.i.i, label %if.then.i.i.i.i.i.i

if.then.i.i.i.i.i.i:                              ; preds = %for.body.i.i.i
  %m_ref_count.i.i.i.i.i.i.i = getelementptr inbounds i8, ptr %6, i64 8
  %8 = load i32, ptr %m_ref_count.i.i.i.i.i.i.i, align 4
  %dec.i.i.i.i.i.i.i = add i32 %8, -1
  store i32 %dec.i.i.i.i.i.i.i, ptr %m_ref_count.i.i.i.i.i.i.i, align 4
  %cmp.i.i.i.i.i.i = icmp eq i32 %dec.i.i.i.i.i.i.i, 0
  br i1 %cmp.i.i.i.i.i.i, label %if.then2.i.i.i.i.i.i, label %_ZN15ref_vector_coreI3app19ref_manager_wrapperIS0_11ast_managerEE7dec_refEPS0_.exit.i.i.i

if.then2.i.i.i.i.i.i:                             ; preds = %if.then.i.i.i.i.i.i
  invoke void @_ZN11ast_manager11delete_nodeEP3ast(ptr noundef nonnull align 8 dereferenceable(976) %7, ptr noundef nonnull %6)
          to label %_ZN15ref_vector_coreI3app19ref_manager_wrapperIS0_11ast_managerEE7dec_refEPS0_.exit.i.i.i unwind label %terminate.lpad.i.i

_ZN15ref_vector_coreI3app19ref_manager_wrapperIS0_11ast_managerEE7dec_refEPS0_.exit.i.i.i: ; preds = %if.then2.i.i.i.i.i.i, %if.then.i.i.i.i.i.i, %for.body.i.i.i
  %incdec.ptr.i.i.i = getelementptr inbounds i8, ptr %it.04.i.i.i, i64 8
  %cmp.i1.i.i = icmp ult ptr %incdec.ptr.i.i.i, %add.ptr.i.i
  br i1 %cmp.i1.i.i, label %for.body.i.i.i, label %invoke.cont7.i.i, !llvm.loop !4

invoke.cont7.i.i:                                 ; preds = %_ZN15ref_vector_coreI3app19ref_manager_wrapperIS0_11ast_managerEE7dec_refEPS0_.exit.i.i.i
  %.pre.i.i = load ptr, ptr %m_nodes.i.i, align 8
  %tobool.not.i.i.i.i.i = icmp eq ptr %.pre.i.i, null
  br i1 %tobool.not.i.i.i.i.i, label %_ZN10ref_vectorI3app11ast_managerED2Ev.exit, label %if.then.i.i.i.i.i

if.then.i.i.i.i.i:                                ; preds = %invoke.cont7.i.i, %_ZNK6vectorIP3appLb0EjE4sizeEv.exit.i.i
  %9 = phi ptr [ %.pre.i.i, %invoke.cont7.i.i ], [ %3, %_ZNK6vectorIP3appLb0EjE4sizeEv.exit.i.i ]
  %add.ptr.i.i.i.i.i.i = getelementptr inbounds i8, ptr %9, i64 -8
  invoke void @_ZN6memory10deallocateEPv(ptr noundef nonnull %add.ptr.i.i.i.i.i.i)
          to label %_ZN10ref_vectorI3app11ast_managerED2Ev.exit unwind label %terminate.lpad.i.i.i.i

terminate.lpad.i.i.i.i:                           ; preds = %if.then.i.i.i.i.i
  %10 = landingpad { ptr, i32 }
          catch ptr null
  %11 = extractvalue { ptr, i32 } %10, 0
  call void @__clang_call_terminate(ptr %11) #20
  unreachable

terminate.lpad.i.i:                               ; preds = %if.then2.i.i.i.i.i.i
  %12 = landingpad { ptr, i32 }
          catch ptr null
  %13 = extractvalue { ptr, i32 } %12, 0
  call void @__clang_call_terminate(ptr %13) #20
  unreachable

_ZN10ref_vectorI3app11ast_managerED2Ev.exit:      ; preds = %invoke.cont2, %invoke.cont7.i.i, %if.then.i.i.i.i.i
  store ptr getelementptr inbounds ({ [10 x ptr] }, ptr @_ZTVN3mbp20arith_project_pluginE, i64 0, i32 0, i64 2), ptr %ap, align 8
  %14 = load ptr, ptr %m_imp.i, align 8
  %cmp.i.i = icmp eq ptr %14, null
  br i1 %cmp.i.i, label %_ZN3mbp20arith_project_pluginD2Ev.exit, label %if.end.i.i

if.end.i.i:                                       ; preds = %_ZN10ref_vectorI3app11ast_managerED2Ev.exit
  invoke void @_ZN6memory10deallocateEPv(ptr noundef nonnull %14)
          to label %_ZN3mbp20arith_project_pluginD2Ev.exit unwind label %terminate.lpad.i

terminate.lpad.i:                                 ; preds = %if.end.i.i
  %15 = landingpad { ptr, i32 }
          catch ptr null
  %16 = extractvalue { ptr, i32 } %15, 0
  call void @__clang_call_terminate(ptr %16) #20
  unreachable

_ZN3mbp20arith_project_pluginD2Ev.exit:           ; preds = %_ZN10ref_vectorI3app11ast_managerED2Ev.exit, %if.end.i.i
  call void @_ZN3mbp14project_pluginD2Ev(ptr noundef nonnull align 8 dereferenceable(144) %ap) #19
  ret i1 %call.i56

lpad1:                                            ; preds = %invoke.cont
  %17 = landingpad { ptr, i32 }
          cleanup
  call void @_ZN10ref_vectorI3app11ast_managerED2Ev(ptr noundef nonnull align 8 dereferenceable(16) %vars) #19
  call void @_ZN3mbp20arith_project_pluginD2Ev(ptr noundef nonnull align 8 dereferenceable(152) %ap) #19
  br label %common.resume
}